target datalayout = "e-m:e-p270:32:32-p271:32:32-p272:64:64-i64:64-i128:128-f80:128-n8:16:32:64-S128"
target triple = "x86_64-pc-linux-gnu"

%struct.DecodingOutputState = type { ptr, ptr, i8, i64 }
%struct.LogicalDecodingContext = type { ptr, ptr, ptr, ptr, ptr, i8, %struct.OutputPluginCallbacks, %struct.OutputPluginOptions, ptr, ptr, ptr, ptr, ptr, ptr, ptr, i8, i8, i8, i8, i8, i64, i32, i8, i8 }
%struct.OutputPluginCallbacks = type { ptr, ptr, ptr, ptr, ptr, ptr, ptr, ptr, ptr, ptr, ptr, ptr, ptr, ptr, ptr, ptr, ptr, ptr, ptr, ptr, ptr }
%struct.OutputPluginOptions = type { i32, i8 }
%struct.StringInfoData = type { ptr, i32, i32, i32 }

@.str.1 = private unnamed_addr constant [15 x i8] c"logicalfuncs.c\00", align 1
@.str.8 = private unnamed_addr constant [34 x i8] c"too much output for sql interface\00", align 1
@__func__.LogicalOutputWrite = private unnamed_addr constant [19 x i8] c"LogicalOutputWrite\00", align 1

; Function Attrs: inlinehint nounwind uwtable
define internal i64 @Int64GetDatum(i64 noundef %0) #2 {
  %2 = alloca i64, align 8
  store i64 %0, ptr %2, align 8
  %3 = load i64, ptr %2, align 8
  ret i64 %3
}

; Function Attrs: inlinehint nounwind uwtable
define internal i64 @PointerGetDatum(ptr noundef %0) #2 {
  %2 = alloca ptr, align 8
  store ptr %0, ptr %2, align 8
  %3 = load ptr, ptr %2, align 8
  %4 = ptrtoint ptr %3 to i64
  ret i64 %4
}

; Function Attrs: inlinehint nounwind uwtable
define internal i64 @TransactionIdGetDatum(i32 noundef %0) #2 {
  %2 = alloca i32, align 4
  store i32 %0, ptr %2, align 4
  %3 = load i32, ptr %2, align 4
  %4 = zext i32 %3 to i64
  ret i64 %4
}

; Function Attrs: inlinehint nounwind uwtable
define internal i64 @LSNGetDatum(i64 noundef %0) #2 {
  %2 = alloca i64, align 8
  store i64 %0, ptr %2, align 8
  %3 = load i64, ptr %2, align 8
  %4 = call i64 @Int64GetDatum(i64 noundef %3)
  ret i64 %4
}

; Function Attrs: nounwind uwtable
define internal void @LogicalOutputWrite(ptr noundef %0, i64 noundef %1, i32 noundef %2, i1 noundef zeroext %3) #0 {
  %5 = alloca ptr, align 8
  %6 = alloca i64, align 8
  %7 = alloca i32, align 4
  %8 = alloca i8, align 1
  %9 = alloca [3 x i64], align 16
  %10 = alloca [3 x i8], align 1
  %11 = alloca ptr, align 8
  store ptr %0, ptr %5, align 8
  store i64 %1, ptr %6, align 8
  store i32 %2, ptr %7, align 4
  %12 = zext i1 %3 to i8
  store i8 %12, ptr %8, align 1
  call void @llvm.lifetime.start.p0(i64 24, ptr %9) #9
  call void @llvm.lifetime.start.p0(i64 3, ptr %10) #9
  call void @llvm.lifetime.start.p0(i64 8, ptr %11) #9
  %13 = load ptr, ptr %5, align 8
  %14 = getelementptr inbounds nuw %struct.LogicalDecodingContext, ptr %13, i32 0, i32 12
  %15 = load ptr, ptr %14, align 8
  %16 = getelementptr inbounds nuw %struct.StringInfoData, ptr %15, i32 0, i32 1
  %17 = load i32, ptr %16, align 8
  %18 = sext i32 %17 to i64
  %19 = icmp ugt i64 %18, 1073741819
  br i1 %19, label %20, label %31

20:                                               ; preds = %4
  br label %21

21:                                               ; preds = %20
  br i1 true, label %22, label %24

22:                                               ; preds = %21
  %23 = call zeroext i1 @errstart_cold(i32 noundef 21, ptr noundef null) #10
  br i1 %23, label %26, label %28

24:                                               ; preds = %21
  %25 = call zeroext i1 @errstart(i32 noundef 21, ptr noundef null)
  br i1 %25, label %26, label %28

26:                                               ; preds = %24, %22
  %27 = call i32 (ptr, ...) @errmsg_internal(ptr noundef @.str.8)
  call void @errfinish(ptr noundef @.str.1, i32 noundef 71, ptr noundef @__func__.LogicalOutputWrite)
  br label %28

28:                                               ; preds = %26, %24, %22
  unreachable

29:                                               ; No predecessors!
  br label %30

30:                                               ; preds = %29
  br label %31

31:                                               ; preds = %30, %4
  %32 = load ptr, ptr %5, align 8
  %33 = getelementptr inbounds nuw %struct.LogicalDecodingContext, ptr %32, i32 0, i32 14
  %34 = load ptr, ptr %33, align 8
  store ptr %34, ptr %11, align 8
  %35 = getelementptr inbounds [3 x i8], ptr %10, i64 0, i64 0
  call void @llvm.memset.p0.i64(ptr align 1 %35, i8 0, i64 3, i1 false)
  %36 = load i64, ptr %6, align 8
  %37 = call i64 @LSNGetDatum(i64 noundef %36)
  %38 = getelementptr inbounds [3 x i64], ptr %9, i64 0, i64 0
  store i64 %37, ptr %38, align 16
  %39 = load i32, ptr %7, align 4
  %40 = call i64 @TransactionIdGetDatum(i32 noundef %39)
  %41 = getelementptr inbounds [3 x i64], ptr %9, i64 0, i64 1
  store i64 %40, ptr %41, align 8
  %42 = load ptr, ptr %11, align 8
  %43 = getelementptr inbounds nuw %struct.DecodingOutputState, ptr %42, i32 0, i32 2
  %44 = load i8, ptr %43, align 8, !range !4, !noundef !5
  %45 = trunc i8 %44 to i1
  br i1 %45, label %47, label %46

46:                                               ; preds = %31
  br label %47

47:                                               ; preds = %46, %31
  %48 = load ptr, ptr %5, align 8
  %49 = getelementptr inbounds nuw %struct.LogicalDecodingContext, ptr %48, i32 0, i32 12
  %50 = load ptr, ptr %49, align 8
  %51 = getelementptr inbounds nuw %struct.StringInfoData, ptr %50, i32 0, i32 0
  %52 = load ptr, ptr %51, align 8
  %53 = load ptr, ptr %5, align 8
  %54 = getelementptr inbounds nuw %struct.LogicalDecodingContext, ptr %53, i32 0, i32 12
  %55 = load ptr, ptr %54, align 8
  %56 = getelementptr inbounds nuw %struct.StringInfoData, ptr %55, i32 0, i32 1
  %57 = load i32, ptr %56, align 8
  %58 = call ptr @cstring_to_text_with_len(ptr noundef %52, i32 noundef %57)
  %59 = call i64 @PointerGetDatum(ptr noundef %58)
  %60 = getelementptr inbounds [3 x i64], ptr %9, i64 0, i64 2
  store i64 %59, ptr %60, align 16
  %61 = load ptr, ptr %11, align 8
  %62 = getelementptr inbounds nuw %struct.DecodingOutputState, ptr %61, i32 0, i32 0
  %63 = load ptr, ptr %62, align 8
  %64 = load ptr, ptr %11, align 8
  %65 = getelementptr inbounds nuw %struct.DecodingOutputState, ptr %64, i32 0, i32 1
  %66 = load ptr, ptr %65, align 8
  %67 = getelementptr inbounds [3 x i64], ptr %9, i64 0, i64 0
  %68 = getelementptr inbounds [3 x i8], ptr %10, i64 0, i64 0
  call void @tuplestore_putvalues(ptr noundef %63, ptr noundef %66, ptr noundef %67, ptr noundef %68)
  %69 = load ptr, ptr %11, align 8
  %70 = getelementptr inbounds nuw %struct.DecodingOutputState, ptr %69, i32 0, i32 3
  %71 = load i64, ptr %70, align 8
  %72 = add i64 %71, 1
  store i64 %72, ptr %70, align 8
  call void @llvm.lifetime.end.p0(i64 8, ptr %11) #9
  call void @llvm.lifetime.end.p0(i64 3, ptr %10) #9
  call void @llvm.lifetime.end.p0(i64 24, ptr %9) #9
  ret void
}