; Function Attrs: nounwind uwtable
define internal void @LogicalOutputWrite(ptr noundef readonly captures(none) %0, i64 noundef %1, i32 noundef %2, i1 zeroext %3) #0 {
  %5 = alloca [3 x i64], align 16
  %6 = alloca [3 x i8], align 1
  call void @llvm.lifetime.start.p0(i64 24, ptr nonnull %5) #9
  call void @llvm.lifetime.start.p0(i64 3, ptr nonnull %6) #9
  %7 = getelementptr inbounds nuw i8, ptr %0, i64 256
  %8 = load ptr, ptr %7, align 8
  %9 = getelementptr inbounds nuw i8, ptr %8, i64 8
  %10 = load i32, ptr %9, align 8
  %11 = icmp ugt i32 %10, 1073741819
  br i1 %11, label %12, label %15

12:                                               ; preds = %4
  %13 = tail call zeroext i1 @errstart_cold(i32 noundef 21, ptr noundef null) #10
  tail call void @llvm.assume(i1 %13)
  %14 = tail call i32 (ptr, ...) @errmsg_internal(ptr noundef nonnull @.str.8) #9
  tail call void @errfinish(ptr noundef nonnull @.str.1, i32 noundef 71, ptr noundef nonnull @__func__.LogicalOutputWrite) #9
  unreachable

15:                                               ; preds = %4
  %16 = getelementptr inbounds nuw i8, ptr %0, i64 272
  %17 = load ptr, ptr %16, align 8
  call void @llvm.memset.p0.i64(ptr noundef nonnull align 1 dereferenceable(3) %6, i8 0, i64 3, i1 false)
  store i64 %1, ptr %5, align 16
  %18 = zext i32 %2 to i64
  %19 = getelementptr inbounds nuw i8, ptr %5, i64 8
  store i64 %18, ptr %19, align 8
  %20 = load ptr, ptr %8, align 8
  %21 = tail call ptr @cstring_to_text_with_len(ptr noundef %20, i32 noundef %10) #9
  %22 = ptrtoint ptr %21 to i64
  %23 = getelementptr inbounds nuw i8, ptr %5, i64 16
  store i64 %22, ptr %23, align 16
  %24 = load ptr, ptr %17, align 8
  %25 = getelementptr inbounds nuw i8, ptr %17, i64 8
  %26 = load ptr, ptr %25, align 8
  call void @tuplestore_putvalues(ptr noundef %24, ptr noundef %26, ptr noundef nonnull %5, ptr noundef nonnull %6) #9
  %27 = getelementptr inbounds nuw i8, ptr %17, i64 24
  %28 = load i64, ptr %27, align 8
  %29 = add i64 %28, 1
  store i64 %29, ptr %27, align 8
  call void @llvm.lifetime.end.p0(i64 3, ptr nonnull %6) #9
  call void @llvm.lifetime.end.p0(i64 24, ptr nonnull %5) #9
  ret void
}